; Function Attrs: mustprogress nofree nounwind uwtable
define void @_ZN32pxrInternal_v0_24__pxrReserved__21pxr_double_conversion6Bignum5AlignERKS1_(ptr nocapture noundef nonnull align 4 dereferenceable(516) %0, ptr nocapture noundef nonnull readonly align 4 dereferenceable(516) %1) local_unnamed_addr #4 align 2 {
  %3 = getelementptr inbounds nuw i8, ptr %0, i64 2
  %4 = load i16, ptr %3, align 2
  %5 = getelementptr inbounds nuw i8, ptr %1, i64 2
  %6 = load i16, ptr %5, align 2
  %7 = icmp sgt i16 %4, %6
  br i1 %7, label %8, label %35

8:                                                ; preds = %2
  %9 = sext i16 %6 to i32
  %10 = sext i16 %4 to i32
  %11 = sub nsw i32 %10, %9
  %12 = load i16, ptr %0, align 4
  %13 = sext i16 %12 to i32
  %14 = add nsw i32 %11, %13
  %15 = icmp sgt i32 %14, 128
  br i1 %15, label %20, label %_ZN32pxrInternal_v0_24__pxrReserved__21pxr_double_conversion6Bignum14EnsureCapacityEi.exit.preheader

_ZN32pxrInternal_v0_24__pxrReserved__21pxr_double_conversion6Bignum14EnsureCapacityEi.exit.preheader: ; preds = %8
  %16 = icmp sgt i16 %12, 0
  br i1 %16, label %.lr.ph, label %.preheader

.lr.ph:                                           ; preds = %_ZN32pxrInternal_v0_24__pxrReserved__21pxr_double_conversion6Bignum14EnsureCapacityEi.exit.preheader
  %17 = getelementptr inbounds nuw i8, ptr %0, i64 4
  %18 = zext nneg i16 %12 to i64
  %19 = sext i32 %11 to i64
  br label %_ZN32pxrInternal_v0_24__pxrReserved__21pxr_double_conversion6Bignum14EnsureCapacityEi.exit

20:                                               ; preds = %8
  tail call void @abort() #11
  unreachable

.preheader:                                       ; preds = %_ZN32pxrInternal_v0_24__pxrReserved__21pxr_double_conversion6Bignum14EnsureCapacityEi.exit, %_ZN32pxrInternal_v0_24__pxrReserved__21pxr_double_conversion6Bignum14EnsureCapacityEi.exit.preheader
  %21 = icmp sgt i32 %11, 0
  br i1 %21, label %.lr.ph20, label %._crit_edge

.lr.ph20:                                         ; preds = %.preheader
  %22 = getelementptr inbounds nuw i8, ptr %0, i64 4
  %23 = zext nneg i32 %11 to i64
  %24 = shl nuw nsw i64 %23, 2
  tail call void @llvm.memset.p0.i64(ptr nonnull align 4 %22, i8 0, i64 %24, i1 false)
  br label %._crit_edge

_ZN32pxrInternal_v0_24__pxrReserved__21pxr_double_conversion6Bignum14EnsureCapacityEi.exit: ; preds = %.lr.ph, %_ZN32pxrInternal_v0_24__pxrReserved__21pxr_double_conversion6Bignum14EnsureCapacityEi.exit
  %indvars.iv = phi i64 [ %18, %.lr.ph ], [ %indvars.iv.next, %_ZN32pxrInternal_v0_24__pxrReserved__21pxr_double_conversion6Bignum14EnsureCapacityEi.exit ]
  %indvars.iv.next = add nsw i64 %indvars.iv, -1
  %25 = getelementptr inbounds [128 x i32], ptr %17, i64 0, i64 %indvars.iv.next
  %26 = load i32, ptr %25, align 4
  %27 = add nsw i64 %indvars.iv.next, %19
  %28 = getelementptr inbounds [128 x i32], ptr %17, i64 0, i64 %27
  store i32 %26, ptr %28, align 4
  %29 = icmp ugt i64 %indvars.iv, 1
  br i1 %29, label %_ZN32pxrInternal_v0_24__pxrReserved__21pxr_double_conversion6Bignum14EnsureCapacityEi.exit, label %.preheader, !llvm.loop !19

._crit_edge:                                      ; preds = %.lr.ph20, %.preheader
  %30 = load i16, ptr %0, align 4
  %31 = trunc i32 %11 to i16
  %32 = add i16 %30, %31
  store i16 %32, ptr %0, align 4
  %33 = load i16, ptr %3, align 2
  %34 = sub i16 %33, %31
  store i16 %34, ptr %3, align 2
  br label %35

35:                                               ; preds = %._crit_edge, %2
  ret void
}